Certificate:
    Data:
        Version: 3 (0x2)
        Serial Number: 1 (0x1)
    Signature Algorithm: sha256WithRSAEncryption
        Issuer: C=JP, ST=Tokyo-to, L=Meguro-ku, O=Example company, OU=Example dept., CN=CA0
        Validity
            Not Before: Jan 22 12:40:55 2018 GMT
            Not After : Jan 20 12:40:55 2028 GMT
        Subject: C=JP, ST=Tokyo-to, O=Example company, OU=Example dept., CN=CA1
        Subject Public Key Info:
            Public Key Algorithm: rsaEncryption
                Public-Key: (2048 bit)
                Modulus:
                    00:c5:31:9c:be:58:60:c2:83:21:3b:c9:d5:96:39:
                    6e:3b:68:1a:7e:3e:e6:09:7a:ce:3c:ca:fb:1b:c5:
                    3a:40:c6:78:fa:80:37:83:bc:92:ed:3d:bd:b3:0e:
                    e3:03:6c:b6:a6:62:7b:f4:44:7f:a9:07:c6:c7:30:
                    ba:83:6e:3a:1f:10:b6:67:87:9d:a2:3c:50:93:1d:
                    dc:3c:1a:cc:f5:03:02:c3:aa:45:02:d4:3c:5e:d3:
                    a8:8e:b1:47:71:f4:13:8b:0e:6c:8a:db:12:57:37:
                    45:cd:07:7a:73:75:a1:2f:11:77:72:8c:50:1a:28:
                    eb:d5:44:a1:b7:9a:eb:d0:00:62:ac:f1:f1:ac:e4:
                    1a:b6:43:70:6c:46:f8:3a:75:df:9b:fd:f0:83:7f:
                    52:96:93:63:1f:da:c8:a0:da:75:1e:e7:7d:37:1d:
                    90:a7:5b:f6:01:0a:14:6c:d7:1d:ea:8f:0e:73:63:
                    0a:71:0a:9f:71:aa:8f:e2:2d:94:91:1a:69:3d:3c:
                    98:f2:e4:e6:65:b8:3e:83:88:f2:50:e8:cc:5b:5e:
                    52:c1:65:1d:aa:19:36:60:72:cc:e3:88:25:3e:9a:
                    1b:dc:95:07:fd:bb:8c:05:07:96:e5:0f:dc:3c:4d:
                    64:cc:e7:4f:97:25:c2:2f:e9:84:6f:82:3d:b8:65:
                    17:91
                Exponent: 65537 (0x10001)
        X509v3 extensions:
            X509v3 Basic Constraints: 
                CA:FALSE
            Netscape Comment: 
                OpenSSL Generated Certificate
            X509v3 Subject Key Identifier: 
                63:7A:38:75:6D:2A:42:30:06:E6:17:14:88:A4:3D:7E:62:22:F1:9D
            X509v3 Authority Key Identifier: 
                keyid:9D:C4:65:38:21:93:43:53:A2:45:FC:5E:77:DB:CD:C2:C8:EC:9D:35

    Signature Algorithm: sha256WithRSAEncryption
         a1:bb:7e:f9:1a:ce:a2:33:af:00:32:df:20:5c:d1:16:b1:f0:
         56:3c:c7:ef:bf:6e:b8:6f:84:70:3a:58:8c:86:d1:c0:10:a6:
         7b:ff:e9:fd:4f:47:1b:e4:01:18:7e:af:59:4d:7b:63:bc:44:
         5e:f5:48:48:13:3b:7c:61:ce:94:79:08:3e:70:31:2d:e5:70:
         03:63:f9:14:2b:97:af:ad:ab:2e:f6:23:5d:b9:40:d4:78:e0:
         48:6c:28:7a:e4:35:81:27:c5:d1:5d:0e:6f:a1:4d:12:2a:6f:
         b9:d8:22:93:e3:4d:38:f7:86:a0:0f:f9:0d:4a:91:4e:2e:f5:
         c8:3b:7e:96:d3:a9:3a:90:4d:e6:8d:89:d2:87:05:d5:36:27:
         cc:00:dc:62:22:a1:73:35:49:51:66:0b:d2:3e:8f:8b:ec:22:
         fb:52:46:ea:5e:c1:c9:3e:2f:54:9e:87:4d:c0:e2:b6:ea:38:
         70:ee:04:0c:07:63:df:f4:6a:21:3e:d8:08:3a:41:7d:37:4f:
         e6:e8:72:09:b2:c7:4e:34:83:08:be:52:83:73:b1:b4:9d:4e:
         65:0d:e8:47:76:03:38:d0:d4:84:51:2b:c7:2a:c4:64:d0:fa:
         9b:e7:51:24:be:7a:92:1f:df:cc:45:b0:c4:e8:9a:a6:2d:91:
         f1:82:98:00
-----BEGIN CERTIFICATE-----
MIIDyjCCArKgAwIBAgIBATANBgkqhkiG9w0BAQsFADB0MQswCQYDVQQGEwJKUDER
MA8GA1UECAwIVG9reW8tdG8xEjAQBgNVBAcMCU1lZ3Vyby1rdTEYMBYGA1UECgwP
RXhhbXBsZSBjb21wYW55MRYwFAYDVQQLDA1FeGFtcGxlIGRlcHQuMQwwCgYDVQQD
DANDQTAwHhcNMTgwMTIyMTI0MDU1WhcNMjgwMTIwMTI0MDU1WjBgMQswCQYDVQQG
EwJKUDERMA8GA1UECAwIVG9reW8tdG8xGDAWBgNVBAoMD0V4YW1wbGUgY29tcGFu
eTEWMBQGA1UECwwNRXhhbXBsZSBkZXB0LjEMMAoGA1UEAwwDQ0ExMIIBIjANBgkq
hkiG9w0BAQEFAAOCAQ8AMIIBCgKCAQEAxTGcvlhgwoMhO8nVljluO2gafj7mCXrO
PMr7G8U6QMZ4+oA3g7yS7T29sw7jA2y2pmJ79ER/qQfGxzC6g246HxC2Z4edojxQ
kx3cPBrM9QMCw6pFAtQ8XtOojrFHcfQTiw5sitsSVzdFzQd6c3WhLxF3coxQGijr
1USht5rr0ABirPHxrOQatkNwbEb4OnXfm/3wg39SlpNjH9rIoNp1Hud9Nx2Qp1v2
AQoUbNcd6o8Oc2MKcQqfcaqP4i2UkRppPTyY8uTmZbg+g4jyUOjMW15SwWUdqhk2
YHLM44glPpob3JUH/buMBQeW5Q/cPE1kzOdPlyXCL+mEb4I9uGUXkQIDAQABo3sw
eTAJBgNVHRMEAjAAMCwGCWCGSAGG+EIBDQQfFh1PcGVuU1NMIEdlbmVyYXRlZCBD
ZXJ0aWZpY2F0ZTAdBgNVHQ4EFgQUY3o4dW0qQjAG5hcUiKQ9fmIi8Z0wHwYDVR0j
BBgwFoAUncRlOCGTQ1OiRfxed9vNwsjsnTUwDQYJKoZIhvcNAQELBQADggEBAKG7
fvkazqIzrwAy3yBc0Rax8FY8x++/brhvhHA6WIyG0cAQpnv/6f1PRxvkARh+r1lN
e2O8RF71SEgTO3xhzpR5CD5wMS3lcANj+RQrl6+tqy72I125QNR44EhsKHrkNYEn
xdFdDm+hTRIqb7nYIpPjTTj3hqAP+Q1KkU4u9cg7fpbTqTqQTeaNidKHBdU2J8wA
3GIioXM1SVFmC9I+j4vsIvtSRupewck+L1Seh03A4rbqOHDuBAwHY9/0aiE+2Ag6
QX03T+bocgmyx040gwi+UoNzsbSdTmUN6Ed2AzjQ1IRRK8cqxGTQ+pvnUSS+epIf
38xFsMTomqYtkfGCmAA=
-----END CERTIFICATE-----
